(dp0
S'Password'
p1
S'prabha'
p2
sS'id'
p3
S'1'
p4
sS'name'
p5
S'Prabha'
p6
s.(dp0
S'Password'
p1
S'pragyan'
p2
sS'id'
p3
S'3'
p4
sS'name'
p5
S'Pragyan'
p6
s.(dp0
S'Password'
p1
S'priya'
p2
sS'id'
p3
S'2'
p4
sS'name'
p5
S'priya '
p6
s.(dp0
S'Password'
p1
S'priya'
p2
sS'id'
p3
S'5'
p4
sS'name'
p5
S'Priya'
p6
s.(dp0
S'Password'
p1
S'shruti'
p2
sS'id'
p3
S'6'
p4
sS'name'
p5
S'Shruti'
p6
s.(dp0
S'Password'
p1
S'1234'
p2
sS'id'
p3
S'14'
p4
sS'name'
p5
S'Prabha'
p6
s.