(dp0
S'phone'
p1
S'8989660248'
p2
sS'address'
p3
S'bhopal'
p4
sS'id'
p5
S'23'
p6
sS'Password'
p7
S'prabha'
p8
sS'name'
p9
S'Prabha'
p10
s.(dp0
S'phone'
p1
S'121233'
p2
sS'address'
p3
S'bhopal'
p4
sS'id'
p5
S'12'
p6
sS'Password'
p7
S'1234'
p8
sS'name'
p9
S'Pragyan'
p10
s.